; Function Attrs: mustprogress nounwind uwtable
define dso_local i64 @_ZN5clang7CodeGen8CGCXXABI18GetArrayCookieSizeEPKNS_10CXXNewExprE(ptr noundef nonnull align 8 dereferenceable(24) %0, ptr noundef %1) unnamed_addr #0 align 2 {
  %3 = load ptr, ptr %0, align 8
  %4 = getelementptr inbounds nuw i8, ptr %3, i64 8
  %5 = load ptr, ptr %4, align 8
  %6 = tail call noundef zeroext i1 %5(ptr noundef nonnull align 8 dereferenceable(24) %0, ptr noundef %1) #17
  br i1 %6, label %7, label %21

7:                                                ; preds = %2
  %8 = getelementptr inbounds nuw i8, ptr %1, i64 8
  %.sroa.0.0.copyload.i.i = load i64, ptr %8, align 8
  %9 = and i64 %.sroa.0.0.copyload.i.i, -16
  %10 = inttoptr i64 %9 to ptr
  %11 = load ptr, ptr %10, align 16
  %12 = getelementptr inbounds nuw i8, ptr %11, i64 16
  %13 = load i8, ptr %12, align 16
  %.not.i.i = icmp eq i8 %13, 41
  br i1 %.not.i.i, label %_ZNK5clang10CXXNewExpr16getAllocatedTypeEv.exit, label %14

14:                                               ; preds = %7
  %15 = tail call noundef ptr @_ZNK5clang4Type27getUnqualifiedDesugaredTypeEv(ptr noundef nonnull align 16 dereferenceable(24) %11) #17
  br label %_ZNK5clang10CXXNewExpr16getAllocatedTypeEv.exit

_ZNK5clang10CXXNewExpr16getAllocatedTypeEv.exit:  ; preds = %7, %14
  %.0.i.i = phi ptr [ %15, %14 ], [ %11, %7 ]
  %16 = getelementptr inbounds nuw i8, ptr %.0.i.i, i64 32
  %.sroa.0.0.copyload.i1.i = load i64, ptr %16, align 16
  %17 = load ptr, ptr %0, align 8
  %18 = getelementptr inbounds nuw i8, ptr %17, i64 688
  %19 = load ptr, ptr %18, align 8
  %20 = tail call i64 %19(ptr noundef nonnull align 8 dereferenceable(24) %0, i64 %.sroa.0.0.copyload.i1.i) #17
  br label %21

21:                                               ; preds = %2, %_ZNK5clang10CXXNewExpr16getAllocatedTypeEv.exit
  %.sroa.03.0 = phi i64 [ %20, %_ZNK5clang10CXXNewExpr16getAllocatedTypeEv.exit ], [ 0, %2 ]
  ret i64 %.sroa.03.0
}